target datalayout = "e-m:e-p270:32:32-p271:32:32-p272:64:64-i64:64-i128:128-f80:128-n8:16:32:64-S128"
target triple = "x86_64-pc-linux-gnu"

%struct.Fxch_Man_t_ = type { ptr, i32, i32, ptr, ptr, ptr, ptr, ptr, ptr, ptr, ptr, ptr, ptr, ptr, ptr, i32, ptr, ptr, ptr, ptr, ptr, ptr, ptr, i64, i64, i32, i32, i32, i32, i32 }
%struct.Vec_Wec_t_ = type { i32, i32, ptr }
%struct.Hsh_VecMan_t_ = type { ptr, ptr, ptr, %struct.Vec_Int_t_, %struct.Vec_Int_t_, %struct.Vec_Int_t_ }
%struct.Vec_Int_t_ = type { i32, i32, ptr }
%struct.Vec_Que_t_ = type { i32, i32, ptr, ptr, ptr }

@.str = private unnamed_addr constant [13 x i8] c"Cubes =%8d  \00", align 1
@.str.1 = private unnamed_addr constant [13 x i8] c"Lits  =%8d  \00", align 1
@.str.2 = private unnamed_addr constant [13 x i8] c"Divs  =%8d  \00", align 1
@.str.3 = private unnamed_addr constant [13 x i8] c"Divs+ =%8d  \00", align 1
@.str.4 = private unnamed_addr constant [14 x i8] c"Extr  =%7d  \0A\00", align 1

; Function Attrs: inlinehint nounwind uwtable
define internal i32 @Vec_IntSize(ptr noundef %0) #3 {
  %2 = alloca ptr, align 8
  store ptr %0, ptr %2, align 8, !tbaa !48
  %3 = load ptr, ptr %2, align 8, !tbaa !48
  %4 = getelementptr inbounds nuw %struct.Vec_Int_t_, ptr %3, i32 0, i32 1
  %5 = load i32, ptr %4, align 4, !tbaa !49
  ret i32 %5
}

; Function Attrs: inlinehint nounwind uwtable
define internal ptr @Vec_WecEntry(ptr noundef %0, i32 noundef %1) #3 {
  %3 = alloca ptr, align 8
  %4 = alloca i32, align 4
  store ptr %0, ptr %3, align 8, !tbaa !3
  store i32 %1, ptr %4, align 4, !tbaa !33
  %5 = load ptr, ptr %3, align 8, !tbaa !3
  %6 = getelementptr inbounds nuw %struct.Vec_Wec_t_, ptr %5, i32 0, i32 2
  %7 = load ptr, ptr %6, align 8, !tbaa !47
  %8 = load i32, ptr %4, align 4, !tbaa !33
  %9 = sext i32 %8 to i64
  %10 = getelementptr inbounds %struct.Vec_Int_t_, ptr %7, i64 %9
  ret ptr %10
}

; Function Attrs: inlinehint nounwind uwtable
define internal i32 @Vec_WecSize(ptr noundef %0) #3 {
  %2 = alloca ptr, align 8
  store ptr %0, ptr %2, align 8, !tbaa !3
  %3 = load ptr, ptr %2, align 8, !tbaa !3
  %4 = getelementptr inbounds nuw %struct.Vec_Wec_t_, ptr %3, i32 0, i32 1
  %5 = load i32, ptr %4, align 4, !tbaa !31
  ret i32 %5
}

; Function Attrs: inlinehint nounwind uwtable
define internal i32 @Vec_QueSize(ptr noundef %0) #3 {
  %2 = alloca ptr, align 8
  store ptr %0, ptr %2, align 8, !tbaa !57
  %3 = load ptr, ptr %2, align 8, !tbaa !57
  %4 = getelementptr inbounds nuw %struct.Vec_Que_t_, ptr %3, i32 0, i32 1
  %5 = load i32, ptr %4, align 4, !tbaa !92
  %6 = sub nsw i32 %5, 1
  ret i32 %6
}

; Function Attrs: inlinehint nounwind uwtable
define internal i32 @Hsh_VecSize(ptr noundef %0) #3 {
  %2 = alloca ptr, align 8
  store ptr %0, ptr %2, align 8, !tbaa !34
  %3 = load ptr, ptr %2, align 8, !tbaa !34
  %4 = getelementptr inbounds nuw %struct.Hsh_VecMan_t_, ptr %3, i32 0, i32 2
  %5 = load ptr, ptr %4, align 8, !tbaa !39
  %6 = call i32 @Vec_IntSize(ptr noundef %5)
  ret i32 %6
}

; Function Attrs: inlinehint nounwind uwtable
define internal i32 @Vec_WecSizeUsed(ptr noundef %0) #3 {
  %2 = alloca ptr, align 8
  %3 = alloca ptr, align 8
  %4 = alloca i32, align 4
  %5 = alloca i32, align 4
  store ptr %0, ptr %2, align 8, !tbaa !3
  call void @llvm.lifetime.start.p0(i64 8, ptr %3) #10
  call void @llvm.lifetime.start.p0(i64 4, ptr %4) #10
  call void @llvm.lifetime.start.p0(i64 4, ptr %5) #10
  store i32 0, ptr %5, align 4, !tbaa !33
  store i32 0, ptr %4, align 4, !tbaa !33
  br label %6

6:                                                ; preds = %24, %1
  %7 = load i32, ptr %4, align 4, !tbaa !33
  %8 = load ptr, ptr %2, align 8, !tbaa !3
  %9 = call i32 @Vec_WecSize(ptr noundef %8)
  %10 = icmp slt i32 %7, %9
  br i1 %10, label %11, label %15

11:                                               ; preds = %6
  %12 = load ptr, ptr %2, align 8, !tbaa !3
  %13 = load i32, ptr %4, align 4, !tbaa !33
  %14 = call ptr @Vec_WecEntry(ptr noundef %12, i32 noundef %13)
  store ptr %14, ptr %3, align 8, !tbaa !48
  br label %15

15:                                               ; preds = %11, %6
  %16 = phi i1 [ false, %6 ], [ true, %11 ]
  br i1 %16, label %17, label %27

17:                                               ; preds = %15
  %18 = load ptr, ptr %3, align 8, !tbaa !48
  %19 = call i32 @Vec_IntSize(ptr noundef %18)
  %20 = icmp sgt i32 %19, 0
  %21 = zext i1 %20 to i32
  %22 = load i32, ptr %5, align 4, !tbaa !33
  %23 = add nsw i32 %22, %21
  store i32 %23, ptr %5, align 4, !tbaa !33
  br label %24

24:                                               ; preds = %17
  %25 = load i32, ptr %4, align 4, !tbaa !33
  %26 = add nsw i32 %25, 1
  store i32 %26, ptr %4, align 4, !tbaa !33
  br label %6, !llvm.loop !135

27:                                               ; preds = %15
  %28 = load i32, ptr %5, align 4, !tbaa !33
  call void @llvm.lifetime.end.p0(i64 4, ptr %5) #10
  call void @llvm.lifetime.end.p0(i64 4, ptr %4) #10
  call void @llvm.lifetime.end.p0(i64 8, ptr %3) #10
  ret i32 %28
}

; Function Attrs: nounwind uwtable
define void @Fxch_ManPrintStats(ptr noundef %0) #0 {
  %2 = alloca ptr, align 8
  store ptr %0, ptr %2, align 8, !tbaa !8
  %3 = load ptr, ptr %2, align 8, !tbaa !8
  %4 = getelementptr inbounds nuw %struct.Fxch_Man_t_, ptr %3, i32 0, i32 0
  %5 = load ptr, ptr %4, align 8, !tbaa !10
  %6 = call i32 @Vec_WecSizeUsed(ptr noundef %5)
  %7 = call i32 (ptr, ...) @printf(ptr noundef @.str, i32 noundef %6)
  %8 = load ptr, ptr %2, align 8, !tbaa !8
  %9 = getelementptr inbounds nuw %struct.Fxch_Man_t_, ptr %8, i32 0, i32 4
  %10 = load ptr, ptr %9, align 8, !tbaa !52
  %11 = call i32 @Vec_WecSizeUsed(ptr noundef %10)
  %12 = call i32 (ptr, ...) @printf(ptr noundef @.str.1, i32 noundef %11)
  %13 = load ptr, ptr %2, align 8, !tbaa !8
  %14 = getelementptr inbounds nuw %struct.Fxch_Man_t_, ptr %13, i32 0, i32 7
  %15 = load ptr, ptr %14, align 8, !tbaa !21
  %16 = call i32 @Hsh_VecSize(ptr noundef %15)
  %17 = call i32 (ptr, ...) @printf(ptr noundef @.str.2, i32 noundef %16)
  %18 = load ptr, ptr %2, align 8, !tbaa !8
  %19 = getelementptr inbounds nuw %struct.Fxch_Man_t_, ptr %18, i32 0, i32 9
  %20 = load ptr, ptr %19, align 8, !tbaa !55
  %21 = call i32 @Vec_QueSize(ptr noundef %20)
  %22 = call i32 (ptr, ...) @printf(ptr noundef @.str.3, i32 noundef %21)
  %23 = load ptr, ptr %2, align 8, !tbaa !8
  %24 = getelementptr inbounds nuw %struct.Fxch_Man_t_, ptr %23, i32 0, i32 29
  %25 = load i32, ptr %24, align 8, !tbaa !108
  %26 = call i32 (ptr, ...) @printf(ptr noundef @.str.4, i32 noundef %25)
  ret void
}