; Function Attrs: nofree nounwind uwtable
define void @Fxch_ManPrintStats(ptr noundef readonly captures(none) %0) local_unnamed_addr #9 {
  %2 = load ptr, ptr %0, align 8, !tbaa !3
  %3 = getelementptr i8, ptr %2, i64 4
  %.val.i = load i32, ptr %3, align 4, !tbaa !17
  %4 = icmp sgt i32 %.val.i, 0
  br i1 %4, label %.lr.ph.i, label %Vec_WecSizeUsed.exit

.lr.ph.i:                                         ; preds = %1
  %5 = getelementptr i8, ptr %2, i64 8
  %.val8.i = load ptr, ptr %5, align 8, !tbaa !39
  %wide.trip.count.i = zext nneg i32 %.val.i to i64
  br label %6

6:                                                ; preds = %6, %.lr.ph.i
  %indvars.iv.i = phi i64 [ 0, %.lr.ph.i ], [ %indvars.iv.next.i, %6 ]
  %.011.i = phi i32 [ 0, %.lr.ph.i ], [ %10, %6 ]
  %7 = getelementptr %struct.Vec_Int_t_, ptr %.val8.i, i64 %indvars.iv.i, i32 1
  %.val9.i = load i32, ptr %7, align 4, !tbaa !26
  %8 = icmp sgt i32 %.val9.i, 0
  %9 = zext i1 %8 to i32
  %10 = add nuw nsw i32 %.011.i, %9
  %indvars.iv.next.i = add nuw nsw i64 %indvars.iv.i, 1
  %exitcond.not.i = icmp eq i64 %indvars.iv.next.i, %wide.trip.count.i
  br i1 %exitcond.not.i, label %Vec_WecSizeUsed.exit, label %6, !llvm.loop !134

Vec_WecSizeUsed.exit:                             ; preds = %6, %1
  %.0.lcssa.i = phi i32 [ 0, %1 ], [ %10, %6 ]
  %11 = tail call i32 (ptr, ...) @printf(ptr noundef nonnull dereferenceable(1) @.str, i32 noundef %.0.lcssa.i)
  %12 = getelementptr inbounds nuw i8, ptr %0, i64 24
  %13 = load ptr, ptr %12, align 8, !tbaa !48
  %14 = getelementptr i8, ptr %13, i64 4
  %.val.i6 = load i32, ptr %14, align 4, !tbaa !17
  %15 = icmp sgt i32 %.val.i6, 0
  br i1 %15, label %.lr.ph.i8, label %Vec_WecSizeUsed.exit16

.lr.ph.i8:                                        ; preds = %Vec_WecSizeUsed.exit
  %16 = getelementptr i8, ptr %13, i64 8
  %.val8.i9 = load ptr, ptr %16, align 8, !tbaa !39
  %wide.trip.count.i10 = zext nneg i32 %.val.i6 to i64
  br label %17

17:                                               ; preds = %17, %.lr.ph.i8
  %indvars.iv.i11 = phi i64 [ 0, %.lr.ph.i8 ], [ %indvars.iv.next.i14, %17 ]
  %.011.i12 = phi i32 [ 0, %.lr.ph.i8 ], [ %21, %17 ]
  %18 = getelementptr %struct.Vec_Int_t_, ptr %.val8.i9, i64 %indvars.iv.i11, i32 1
  %.val9.i13 = load i32, ptr %18, align 4, !tbaa !26
  %19 = icmp sgt i32 %.val9.i13, 0
  %20 = zext i1 %19 to i32
  %21 = add nuw nsw i32 %.011.i12, %20
  %indvars.iv.next.i14 = add nuw nsw i64 %indvars.iv.i11, 1
  %exitcond.not.i15 = icmp eq i64 %indvars.iv.next.i14, %wide.trip.count.i10
  br i1 %exitcond.not.i15, label %Vec_WecSizeUsed.exit16, label %17, !llvm.loop !134

Vec_WecSizeUsed.exit16:                           ; preds = %17, %Vec_WecSizeUsed.exit
  %.0.lcssa.i7 = phi i32 [ 0, %Vec_WecSizeUsed.exit ], [ %21, %17 ]
  %22 = tail call i32 (ptr, ...) @printf(ptr noundef nonnull dereferenceable(1) @.str.1, i32 noundef %.0.lcssa.i7)
  %23 = getelementptr inbounds nuw i8, ptr %0, i64 48
  %24 = load ptr, ptr %23, align 8, !tbaa !31
  %25 = getelementptr i8, ptr %24, i64 16
  %.val = load ptr, ptr %25, align 8, !tbaa !30
  %26 = getelementptr i8, ptr %.val, i64 4
  %.val.val = load i32, ptr %26, align 4, !tbaa !26
  %27 = tail call i32 (ptr, ...) @printf(ptr noundef nonnull dereferenceable(1) @.str.2, i32 noundef %.val.val)
  %28 = getelementptr inbounds nuw i8, ptr %0, i64 64
  %29 = load ptr, ptr %28, align 8, !tbaa !52
  %30 = getelementptr i8, ptr %29, i64 4
  %.val5 = load i32, ptr %30, align 4, !tbaa !72
  %31 = add nsw i32 %.val5, -1
  %32 = tail call i32 (ptr, ...) @printf(ptr noundef nonnull dereferenceable(1) @.str.3, i32 noundef %31)
  %33 = getelementptr inbounds nuw i8, ptr %0, i64 208
  %34 = load i32, ptr %33, align 8, !tbaa !123
  %35 = tail call i32 (ptr, ...) @printf(ptr noundef nonnull dereferenceable(1) @.str.4, i32 noundef %34)
  ret void
}